; Function Attrs: nounwind uwtable
define internal noundef ptr @_handle_uint16(ptr noundef %0, ptr noundef %1) #0 {
  %3 = alloca ptr, align 8
  call void @llvm.lifetime.start.p0(i64 8, ptr nonnull %3) #13
  %4 = tail call ptr @slurm_xcalloc(i64 noundef 1, i64 noundef 2, i1 noundef zeroext true, i1 noundef zeroext false, ptr noundef nonnull @.str, i32 noundef 577, ptr noundef nonnull @__func__._handle_uint16) #13
  store ptr %4, ptr %3, align 8
  %5 = tail call i32 @s_p_handle_uint16(ptr noundef %4, ptr noundef %0, ptr noundef %1) #13
  %6 = icmp eq i32 %5, -1
  br i1 %6, label %7, label %8

7:                                                ; preds = %2
  call void @slurm_xfree(ptr noundef nonnull %3) #13
  br label %8

8:                                                ; preds = %2, %7
  %.0 = phi ptr [ null, %7 ], [ %4, %2 ]
  call void @llvm.lifetime.end.p0(i64 8, ptr nonnull %3) #13
  ret ptr %.0
}